target datalayout = "e-m:e-p270:32:32-p271:32:32-p272:64:64-i64:64-i128:128-f80:128-n8:16:32:64-S128"
target triple = "x86_64-unknown-linux-gnu"

%struct.X509V3_CONF_METHOD_st = type { ptr, ptr, ptr, ptr }
%struct.v3_ext_ctx = type { i32, ptr, ptr, ptr, ptr, ptr, ptr }

; Function Attrs: nounwind uwtable
define hidden void @X509V3_section_free(ptr noundef %ctx, ptr noundef %section) #0 {
entry:
  %ctx.addr = alloca ptr, align 8
  %section.addr = alloca ptr, align 8
  store ptr %ctx, ptr %ctx.addr, align 8
  store ptr %section, ptr %section.addr, align 8
  %0 = load ptr, ptr %section.addr, align 8
  %tobool = icmp ne ptr %0, null
  br i1 %tobool, label %if.end, label %if.then

if.then:                                          ; preds = %entry
  br label %if.end5

if.end:                                           ; preds = %entry
  %1 = load ptr, ptr %ctx.addr, align 8
  %db_meth = getelementptr inbounds %struct.v3_ext_ctx, ptr %1, i32 0, i32 5
  %2 = load ptr, ptr %db_meth, align 8
  %free_section = getelementptr inbounds %struct.X509V3_CONF_METHOD_st, ptr %2, i32 0, i32 3
  %3 = load ptr, ptr %free_section, align 8
  %tobool1 = icmp ne ptr %3, null
  br i1 %tobool1, label %if.then2, label %if.end5

if.then2:                                         ; preds = %if.end
  %4 = load ptr, ptr %ctx.addr, align 8
  %db_meth3 = getelementptr inbounds %struct.v3_ext_ctx, ptr %4, i32 0, i32 5
  %5 = load ptr, ptr %db_meth3, align 8
  %free_section4 = getelementptr inbounds %struct.X509V3_CONF_METHOD_st, ptr %5, i32 0, i32 3
  %6 = load ptr, ptr %free_section4, align 8
  %7 = load ptr, ptr %ctx.addr, align 8
  %db = getelementptr inbounds %struct.v3_ext_ctx, ptr %7, i32 0, i32 6
  %8 = load ptr, ptr %db, align 8
  %9 = load ptr, ptr %section.addr, align 8
  call void %6(ptr noundef %8, ptr noundef %9)
  br label %if.end5

if.end5:                                          ; preds = %if.then2, %if.end, %if.then
  ret void
}