; Function Attrs: nounwind uwtable
define hidden void @X509V3_section_free(ptr noundef readonly captures(none) %ctx, ptr noundef %section) local_unnamed_addr #0 {
entry:
  %tobool.not = icmp eq ptr %section, null
  br i1 %tobool.not, label %if.end5, label %if.end

if.end:                                           ; preds = %entry
  %db_meth = getelementptr inbounds nuw i8, ptr %ctx, i64 40
  %0 = load ptr, ptr %db_meth, align 8
  %free_section = getelementptr inbounds nuw i8, ptr %0, i64 24
  %1 = load ptr, ptr %free_section, align 8
  %tobool1.not = icmp eq ptr %1, null
  br i1 %tobool1.not, label %if.end5, label %if.then2

if.then2:                                         ; preds = %if.end
  %db = getelementptr inbounds nuw i8, ptr %ctx, i64 48
  %2 = load ptr, ptr %db, align 8
  tail call void %1(ptr noundef %2, ptr noundef nonnull %section) #10
  br label %if.end5

if.end5:                                          ; preds = %entry, %if.then2, %if.end
  ret void
}